target datalayout = "e-m:e-p270:32:32-p271:32:32-p272:64:64-i64:64-i128:128-f80:128-n8:16:32:64-S128"
target triple = "x86_64-pc-linux-gnu"

%struct.WebPData = type { ptr, i64 }

@stderr = external global ptr, align 8
@.str.81 = private unnamed_addr constant [2 x i8] c"-\00", align 1
@.str.82 = private unnamed_addr constant [3 x i8] c"wb\00", align 1
@stdout = external global ptr, align 8
@.str.83 = private unnamed_addr constant [36 x i8] c"Error opening output WebP file %s!\0A\00", align 1
@.str.84 = private unnamed_addr constant [24 x i8] c"Error writing file %s!\0A\00", align 1
@.str.85 = private unnamed_addr constant [26 x i8] c"Saved file %s (%d bytes)\0A\00", align 1

; Function Attrs: nounwind uwtable
define internal i32 @WriteData(ptr noundef %0, ptr noundef %1) #0 {
  %3 = alloca i32, align 4
  %4 = alloca ptr, align 8
  %5 = alloca ptr, align 8
  %6 = alloca i32, align 4
  %7 = alloca ptr, align 8
  %8 = alloca i32, align 4
  store ptr %0, ptr %4, align 8, !tbaa !26
  store ptr %1, ptr %5, align 8, !tbaa !55
  call void @llvm.lifetime.start.p0(i64 4, ptr %6) #10
  store i32 0, ptr %6, align 4, !tbaa !4
  call void @llvm.lifetime.start.p0(i64 8, ptr %7) #10
  %9 = load ptr, ptr %4, align 8, !tbaa !26
  %10 = call i32 @strcmp(ptr noundef %9, ptr noundef @.str.81) #12
  %11 = icmp ne i32 %10, 0
  br i1 %11, label %12, label %15

12:                                               ; preds = %2
  %13 = load ptr, ptr %4, align 8, !tbaa !26
  %14 = call noalias ptr @fopen(ptr noundef %13, ptr noundef @.str.82)
  br label %18

15:                                               ; preds = %2
  %16 = load ptr, ptr @stdout, align 8, !tbaa !12
  %17 = call ptr @ImgIoUtilSetBinaryMode(ptr noundef %16)
  br label %18

18:                                               ; preds = %15, %12
  %19 = phi ptr [ %14, %12 ], [ %17, %15 ]
  store ptr %19, ptr %7, align 8, !tbaa !12
  %20 = load ptr, ptr %7, align 8, !tbaa !12
  %21 = icmp eq ptr %20, null
  br i1 %21, label %22, label %26

22:                                               ; preds = %18
  %23 = load ptr, ptr @stderr, align 8, !tbaa !12
  %24 = load ptr, ptr %4, align 8, !tbaa !26
  %25 = call i32 (ptr, ptr, ...) @fprintf(ptr noundef %23, ptr noundef @.str.83, ptr noundef %24) #10
  store i32 0, ptr %3, align 4
  store i32 1, ptr %8, align 4
  br label %57

26:                                               ; preds = %18
  %27 = load ptr, ptr %5, align 8, !tbaa !55
  %28 = getelementptr inbounds nuw %struct.WebPData, ptr %27, i32 0, i32 0
  %29 = load ptr, ptr %28, align 8, !tbaa !57
  %30 = load ptr, ptr %5, align 8, !tbaa !55
  %31 = getelementptr inbounds nuw %struct.WebPData, ptr %30, i32 0, i32 1
  %32 = load i64, ptr %31, align 8, !tbaa !58
  %33 = load ptr, ptr %7, align 8, !tbaa !12
  %34 = call i64 @fwrite(ptr noundef %29, i64 noundef %32, i64 noundef 1, ptr noundef %33)
  %35 = icmp ne i64 %34, 1
  br i1 %35, label %36, label %40

36:                                               ; preds = %26
  %37 = load ptr, ptr @stderr, align 8, !tbaa !12
  %38 = load ptr, ptr %4, align 8, !tbaa !26
  %39 = call i32 (ptr, ptr, ...) @fprintf(ptr noundef %37, ptr noundef @.str.84, ptr noundef %38) #10
  br label %48

40:                                               ; preds = %26
  %41 = load ptr, ptr @stderr, align 8, !tbaa !12
  %42 = load ptr, ptr %4, align 8, !tbaa !26
  %43 = load ptr, ptr %5, align 8, !tbaa !55
  %44 = getelementptr inbounds nuw %struct.WebPData, ptr %43, i32 0, i32 1
  %45 = load i64, ptr %44, align 8, !tbaa !58
  %46 = trunc i64 %45 to i32
  %47 = call i32 (ptr, ptr, ...) @fprintf(ptr noundef %41, ptr noundef @.str.85, ptr noundef %42, i32 noundef %46) #10
  store i32 1, ptr %6, align 4, !tbaa !4
  br label %48

48:                                               ; preds = %40, %36
  %49 = load ptr, ptr %7, align 8, !tbaa !12
  %50 = load ptr, ptr @stdout, align 8, !tbaa !12
  %51 = icmp ne ptr %49, %50
  br i1 %51, label %52, label %55

52:                                               ; preds = %48
  %53 = load ptr, ptr %7, align 8, !tbaa !12
  %54 = call i32 @fclose(ptr noundef %53)
  br label %55

55:                                               ; preds = %52, %48
  %56 = load i32, ptr %6, align 4, !tbaa !4
  store i32 %56, ptr %3, align 4
  store i32 1, ptr %8, align 4
  br label %57

57:                                               ; preds = %55, %22
  call void @llvm.lifetime.end.p0(i64 8, ptr %7) #10
  call void @llvm.lifetime.end.p0(i64 4, ptr %6) #10
  %58 = load i32, ptr %3, align 4
  ret i32 %58
}