; Function Attrs: nounwind uwtable
define internal fastcc range(i32 0, 2) i32 @WriteData(ptr noundef %0, ptr noundef nonnull readonly captures(none) %1) unnamed_addr #0 {
sub_0:
  %2 = load i8, ptr %0, align 1
  %.not17 = icmp eq i8 %2, 45
  br i1 %.not17, label %.tail, label %.tail.thread

.tail:                                            ; preds = %sub_0
  %3 = getelementptr inbounds nuw i8, ptr %0, i64 1
  %4 = load i8, ptr %3, align 1
  %5 = icmp eq i8 %4, 0
  br i1 %5, label %7, label %.tail.thread

.tail.thread:                                     ; preds = %sub_0, %.tail
  %6 = tail call noalias ptr @fopen(ptr noundef nonnull %0, ptr noundef nonnull @.str.82)
  br label %10

7:                                                ; preds = %.tail
  %8 = load ptr, ptr @stdout, align 8, !tbaa !18
  %9 = tail call ptr @ImgIoUtilSetBinaryMode(ptr noundef %8) #12
  br label %10

10:                                               ; preds = %7, %.tail.thread
  %11 = phi ptr [ %6, %.tail.thread ], [ %9, %7 ]
  %12 = icmp eq ptr %11, null
  br i1 %12, label %13, label %16

13:                                               ; preds = %10
  %14 = load ptr, ptr @stderr, align 8, !tbaa !18
  %15 = tail call i32 (ptr, ptr, ...) @fprintf(ptr noundef %14, ptr noundef nonnull @.str.83, ptr noundef nonnull %0) #16
  br label %32

16:                                               ; preds = %10
  %17 = load ptr, ptr %1, align 8, !tbaa !33
  %18 = getelementptr inbounds nuw i8, ptr %1, i64 8
  %19 = load i64, ptr %18, align 8, !tbaa !59
  %20 = tail call i64 @fwrite(ptr noundef %17, i64 noundef %19, i64 noundef 1, ptr noundef nonnull %11)
  %.not15 = icmp eq i64 %20, 1
  %21 = load ptr, ptr @stderr, align 8, !tbaa !18
  br i1 %.not15, label %24, label %22

22:                                               ; preds = %16
  %23 = tail call i32 (ptr, ptr, ...) @fprintf(ptr noundef %21, ptr noundef nonnull @.str.84, ptr noundef nonnull %0) #16
  br label %28

24:                                               ; preds = %16
  %25 = load i64, ptr %18, align 8, !tbaa !59
  %26 = trunc i64 %25 to i32
  %27 = tail call i32 (ptr, ptr, ...) @fprintf(ptr noundef %21, ptr noundef nonnull @.str.85, ptr noundef nonnull %0, i32 noundef %26) #16
  br label %28

28:                                               ; preds = %24, %22
  %.013 = phi i32 [ 0, %22 ], [ 1, %24 ]
  %29 = load ptr, ptr @stdout, align 8, !tbaa !18
  %.not16 = icmp eq ptr %11, %29
  br i1 %.not16, label %32, label %30

30:                                               ; preds = %28
  %31 = tail call i32 @fclose(ptr noundef nonnull %11)
  br label %32

32:                                               ; preds = %28, %30, %13
  %.0 = phi i32 [ 0, %13 ], [ %.013, %30 ], [ %.013, %28 ]
  ret i32 %.0
}